(dp0
Vengine
p1
Vpdflatex
p2
sVpackages
p3
c__builtin__
set
p4
((lp5
Vmathtools
p6
aVxcolor
p7
aVbabel
p8
aVenumitem
p9
aVmathdots
p10
aVnewtxmath
p11
aVtextcomp
p12
aVinconsolata
p13
aVfontenc
p14
aVcsquotes
p15
aVgraphicx
p16
aVtikz-cd
p17
aVamssymb
p18
aVinputenc
p19
aVtodonotes
p20
aVmicrotype
p21
atp22
Rp23
sVfiles_with_guttermarks
p24
g4
((lp25
V/usr/local/texlive/2015/texmf-dist/tex/latex/todonotes/todonotes.sty
p26
aV/Users/jannes2/vorlage_bachelor/./bachelor.tex
p27
aV/Users/jannes2/vorlage_bachelor/preamble.tex
p28
aV/Users/jannes2/vorlage_bachelor/./preamble.tex
p29
aV/usr/local/texlive/2015/texmf-dist/tex/latex/enumitem/enumitem.sty
p30
aS'bachelor.tex'
p31
atp32
Rp33
sVsynctex
p34
I01
s.